; Function Attrs: nounwind sspstrong uwtable
define internal i64 @io_buffer_copy(i32 noundef %0, ptr noundef readonly captures(none) %1, i64 noundef %2) #0 {
  %4 = add i32 %0, -5
  %or.cond.i = icmp ult i32 %4, -4
  br i1 %or.cond.i, label %5, label %rb_check_arity.exit

5:                                                ; preds = %3
  tail call void @rb_error_arity(i32 noundef %0, i32 noundef 1, i32 noundef 4) #26
  unreachable

rb_check_arity.exit:                              ; preds = %3
  %6 = tail call ptr @rb_check_typeddata(i64 noundef %2, ptr noundef nonnull @rb_io_buffer_type) #25
  %7 = load i64, ptr %1, align 8, !tbaa !22
  %8 = tail call ptr @rb_check_typeddata(i64 noundef %7, ptr noundef nonnull @rb_io_buffer_type) #25
  %9 = getelementptr inbounds nuw i8, ptr %8, i64 24
  %10 = load i64, ptr %9, align 8, !tbaa !7
  %.not.i.i.i = icmp eq i64 %10, 4
  br i1 %.not.i.i.i, label %io_buffer_validate.exit.thread.i.i, label %io_buffer_validate.exit.i.i

io_buffer_validate.exit.i.i:                      ; preds = %rb_check_arity.exit
  %11 = load ptr, ptr %8, align 8, !tbaa !14
  %12 = getelementptr inbounds nuw i8, ptr %8, i64 8
  %13 = load i64, ptr %12, align 8, !tbaa !16
  %14 = tail call fastcc i32 @io_buffer_validate_slice(i64 noundef %10, ptr noundef %11, i64 noundef %13)
  %.not.i.i = icmp eq i32 %14, 0
  br i1 %.not.i.i, label %15, label %io_buffer_validate.exit.thread.i.i

15:                                               ; preds = %io_buffer_validate.exit.i.i
  %16 = load i64, ptr @rb_eIOBufferInvalidatedError, align 8, !tbaa !22
  tail call void (i64, ptr, ...) @rb_raise(i64 noundef %16, ptr noundef nonnull @.str.119) #26
  unreachable

io_buffer_validate.exit.thread.i.i:               ; preds = %io_buffer_validate.exit.i.i, %rb_check_arity.exit
  %17 = load ptr, ptr %8, align 8, !tbaa !14
  %.not8.i.i = icmp eq ptr %17, null
  br i1 %.not8.i.i, label %rb_io_buffer_get_bytes_for_reading.exit, label %18

18:                                               ; preds = %io_buffer_validate.exit.thread.i.i
  %19 = getelementptr inbounds nuw i8, ptr %8, i64 8
  %20 = load i64, ptr %19, align 8, !tbaa !16
  br label %rb_io_buffer_get_bytes_for_reading.exit

rb_io_buffer_get_bytes_for_reading.exit:          ; preds = %io_buffer_validate.exit.thread.i.i, %18
  %storemerge.i.i = phi i64 [ %20, %18 ], [ 0, %io_buffer_validate.exit.thread.i.i ]
  %21 = add nsw i32 %0, -1
  %22 = getelementptr i8, ptr %1, i64 8
  %23 = tail call fastcc i64 @io_buffer_copy_from(ptr noundef %6, ptr noundef %17, i64 noundef %storemerge.i.i, i32 noundef %21, ptr noundef %22)
  ret i64 %23
}